; Function Attrs: mustprogress nofree norecurse nosync nounwind willreturn memory(read, inaccessiblemem: none) uwtable
define internal range(i32 -1, 2) i32 @_sort_rpc_obj_by_ave_time(ptr noundef readonly captures(none) %0, ptr noundef readonly captures(none) %1) #5 {
  %3 = load ptr, ptr %0, align 8
  %4 = load ptr, ptr %1, align 8
  %5 = getelementptr inbounds nuw i8, ptr %3, i64 16
  %6 = load i64, ptr %5, align 8
  %7 = getelementptr inbounds nuw i8, ptr %4, i64 16
  %8 = load i64, ptr %7, align 8
  %9 = icmp ugt i64 %6, %8
  %10 = ptrtoint ptr %3 to i64
  %11 = lshr i64 %10, 32
  %12 = trunc nuw i64 %11 to i32
  %13 = ptrtoint ptr %4 to i64
  %14 = lshr i64 %13, 32
  %15 = trunc nuw i64 %14 to i32
  br i1 %9, label %19, label %16

16:                                               ; preds = %2
  %17 = icmp ult i64 %6, %8
  br i1 %17, label %19, label %18

18:                                               ; preds = %16
  %.0.i = tail call range(i32 -1, 2) i32 @llvm.ucmp.i32.i32(i32 %12, i32 %15)
  br label %19

19:                                               ; preds = %16, %2, %18
  %.0 = phi i32 [ %.0.i, %18 ], [ -1, %2 ], [ 1, %16 ]
  ret i32 %.0
}